; Function Attrs: nounwind uwtable
define internal void @_WriteBuf(ptr noundef readonly captures(none) %0, ptr noundef captures(none) %1, i64 noundef %2) #0 {
  %4 = getelementptr inbounds nuw i8, ptr %0, i64 592
  %5 = load ptr, ptr %4, align 8
  %6 = getelementptr inbounds nuw i8, ptr %5, i64 48
  %7 = load ptr, ptr %6, align 8
  %8 = load ptr, ptr %7, align 8
  %9 = tail call noundef i64 @fwrite(ptr noundef %1, i64 noundef 1, i64 noundef %2, ptr noundef %8)
  %10 = getelementptr inbounds nuw i8, ptr %7, i64 40
  %11 = load i64, ptr %10, align 8
  %12 = add i64 %11, %9
  store i64 %12, ptr %10, align 8
  %.not = icmp eq i64 %9, %2
  br i1 %.not, label %14, label %13

13:                                               ; preds = %3
  tail call void (i32, i32, ptr, ...) @pg_log_generic(i32 noundef 4, i32 noundef 0, ptr noundef nonnull @.str.30) #17
  tail call void @exit_nicely(i32 noundef 1) #18
  unreachable

14:                                               ; preds = %3
  %15 = getelementptr inbounds nuw i8, ptr %5, i64 8
  %16 = load i64, ptr %15, align 8
  %17 = add i64 %16, %2
  store i64 %17, ptr %15, align 8
  ret void
}